target datalayout = "e-m:e-p270:32:32-p271:32:32-p272:64:64-i64:64-i128:128-f80:128-n8:16:32:64-S128"
target triple = "x86_64-unknown-linux-gnu"

; Function Attrs: mustprogress nounwind uwtable
define internal noundef signext i8 @_ZL9U_FAILURE10UErrorCode(i32 noundef %code) #0 {
entry:
  %code.addr = alloca i32, align 4
  store i32 %code, ptr %code.addr, align 4
  %0 = load i32, ptr %code.addr, align 4
  %cmp = icmp sgt i32 %0, 0
  %conv = zext i1 %cmp to i8
  ret i8 %conv
}

; Function Attrs: mustprogress uwtable
define void @ucal_setTimeZone_75(ptr noundef %cal, ptr noundef %zoneID, i32 noundef %len, ptr noundef %status) #1 {
entry:
  %cal.addr = alloca ptr, align 8
  %zoneID.addr = alloca ptr, align 8
  %len.addr = alloca i32, align 4
  %status.addr = alloca ptr, align 8
  %zone = alloca ptr, align 8
  store ptr %cal, ptr %cal.addr, align 8
  store ptr %zoneID, ptr %zoneID.addr, align 8
  store i32 %len, ptr %len.addr, align 4
  store ptr %status, ptr %status.addr, align 8
  %0 = load ptr, ptr %status.addr, align 8
  %1 = load i32, ptr %0, align 4
  %call = call noundef signext i8 @_ZL9U_FAILURE10UErrorCode(i32 noundef %1)
  %tobool = icmp ne i8 %call, 0
  br i1 %tobool, label %if.then, label %if.end

if.then:                                          ; preds = %entry
  br label %if.end5

if.end:                                           ; preds = %entry
  %2 = load ptr, ptr %zoneID.addr, align 8
  %cmp = icmp eq ptr %2, null
  br i1 %cmp, label %cond.true, label %cond.false

cond.true:                                        ; preds = %if.end
  %call1 = call noundef ptr @_ZN6icu_758TimeZone13createDefaultEv()
  br label %cond.end

cond.false:                                       ; preds = %if.end
  %3 = load ptr, ptr %zoneID.addr, align 8
  %4 = load i32, ptr %len.addr, align 4
  %5 = load ptr, ptr %status.addr, align 8
  %call2 = call noundef ptr @_ZL15_createTimeZonePKDsiP10UErrorCode(ptr noundef %3, i32 noundef %4, ptr noundef %5)
  br label %cond.end

cond.end:                                         ; preds = %cond.false, %cond.true
  %cond = phi ptr [ %call1, %cond.true ], [ %call2, %cond.false ]
  store ptr %cond, ptr %zone, align 8
  %6 = load ptr, ptr %zone, align 8
  %cmp3 = icmp ne ptr %6, null
  br i1 %cmp3, label %if.then4, label %if.end5

if.then4:                                         ; preds = %cond.end
  %7 = load ptr, ptr %cal.addr, align 8
  %8 = load ptr, ptr %zone, align 8
  call void @_ZN6icu_758Calendar13adoptTimeZoneEPNS_8TimeZoneE(ptr noundef nonnull align 8 dereferenceable(618) %7, ptr noundef %8)
  br label %if.end5

if.end5:                                          ; preds = %if.then4, %cond.end, %if.then
  ret void
}