; Function Attrs: mustprogress uwtable
define void @ucal_setTimeZone_75(ptr noundef %cal, ptr noundef %zoneID, i32 noundef %len, ptr noundef %status) local_unnamed_addr #1 {
entry:
  %0 = load i32, ptr %status, align 4
  %cmp.i = icmp slt i32 %0, 1
  br i1 %cmp.i, label %if.end, label %if.end5

if.end:                                           ; preds = %entry
  %cmp = icmp eq ptr %zoneID, null
  br i1 %cmp, label %cond.true, label %cond.false

cond.true:                                        ; preds = %if.end
  %call1 = tail call noundef ptr @_ZN6icu_758TimeZone13createDefaultEv()
  br label %cond.end

cond.false:                                       ; preds = %if.end
  %call2 = tail call fastcc noundef ptr @_ZL15_createTimeZonePKDsiP10UErrorCode(ptr noundef nonnull %zoneID, i32 noundef %len, ptr noundef nonnull %status)
  br label %cond.end

cond.end:                                         ; preds = %cond.false, %cond.true
  %cond = phi ptr [ %call1, %cond.true ], [ %call2, %cond.false ]
  %cmp3.not = icmp eq ptr %cond, null
  br i1 %cmp3.not, label %if.end5, label %if.then4

if.then4:                                         ; preds = %cond.end
  tail call void @_ZN6icu_758Calendar13adoptTimeZoneEPNS_8TimeZoneE(ptr noundef nonnull align 8 dereferenceable(618) %cal, ptr noundef nonnull %cond)
  br label %if.end5

if.end5:                                          ; preds = %entry, %if.then4, %cond.end
  ret void
}